target datalayout = "e-m:e-p270:32:32-p271:32:32-p272:64:64-i64:64-i128:128-f80:128-n8:16:32:64-S128"
target triple = "x86_64-pc-linux-gnu"

; Function Attrs: nounwind uwtable
define i32 @ossl_rsa_get_lcm(ptr noundef %0, ptr noundef %1, ptr noundef %2, ptr noundef %3, ptr noundef %4, ptr noundef %5, ptr noundef %6, ptr noundef %7) #0 {
  %9 = alloca ptr, align 8
  %10 = alloca ptr, align 8
  %11 = alloca ptr, align 8
  %12 = alloca ptr, align 8
  %13 = alloca ptr, align 8
  %14 = alloca ptr, align 8
  %15 = alloca ptr, align 8
  %16 = alloca ptr, align 8
  store ptr %0, ptr %9, align 8, !tbaa !8
  store ptr %1, ptr %10, align 8, !tbaa !12
  store ptr %2, ptr %11, align 8, !tbaa !12
  store ptr %3, ptr %12, align 8, !tbaa !12
  store ptr %4, ptr %13, align 8, !tbaa !12
  store ptr %5, ptr %14, align 8, !tbaa !12
  store ptr %6, ptr %15, align 8, !tbaa !12
  store ptr %7, ptr %16, align 8, !tbaa !12
  %17 = load ptr, ptr %14, align 8, !tbaa !12
  %18 = load ptr, ptr %10, align 8, !tbaa !12
  %19 = call ptr @BN_value_one()
  %20 = call i32 @BN_sub(ptr noundef %17, ptr noundef %18, ptr noundef %19)
  %21 = icmp ne i32 %20, 0
  br i1 %21, label %22, label %49

22:                                               ; preds = %8
  %23 = load ptr, ptr %15, align 8, !tbaa !12
  %24 = load ptr, ptr %11, align 8, !tbaa !12
  %25 = call ptr @BN_value_one()
  %26 = call i32 @BN_sub(ptr noundef %23, ptr noundef %24, ptr noundef %25)
  %27 = icmp ne i32 %26, 0
  br i1 %27, label %28, label %49

28:                                               ; preds = %22
  %29 = load ptr, ptr %16, align 8, !tbaa !12
  %30 = load ptr, ptr %14, align 8, !tbaa !12
  %31 = load ptr, ptr %15, align 8, !tbaa !12
  %32 = load ptr, ptr %9, align 8, !tbaa !8
  %33 = call i32 @BN_mul(ptr noundef %29, ptr noundef %30, ptr noundef %31, ptr noundef %32)
  %34 = icmp ne i32 %33, 0
  br i1 %34, label %35, label %49

35:                                               ; preds = %28
  %36 = load ptr, ptr %13, align 8, !tbaa !12
  %37 = load ptr, ptr %14, align 8, !tbaa !12
  %38 = load ptr, ptr %15, align 8, !tbaa !12
  %39 = load ptr, ptr %9, align 8, !tbaa !8
  %40 = call i32 @BN_gcd(ptr noundef %36, ptr noundef %37, ptr noundef %38, ptr noundef %39)
  %41 = icmp ne i32 %40, 0
  br i1 %41, label %42, label %49

42:                                               ; preds = %35
  %43 = load ptr, ptr %12, align 8, !tbaa !12
  %44 = load ptr, ptr %16, align 8, !tbaa !12
  %45 = load ptr, ptr %13, align 8, !tbaa !12
  %46 = load ptr, ptr %9, align 8, !tbaa !8
  %47 = call i32 @BN_div(ptr noundef %43, ptr noundef null, ptr noundef %44, ptr noundef %45, ptr noundef %46)
  %48 = icmp ne i32 %47, 0
  br label %49

49:                                               ; preds = %42, %35, %28, %22, %8
  %50 = phi i1 [ false, %35 ], [ false, %28 ], [ false, %22 ], [ false, %8 ], [ %48, %42 ]
  %51 = zext i1 %50 to i32
  ret i32 %51
}