; Function Attrs: nounwind uwtable
define range(i32 0, 2) i32 @ossl_rsa_get_lcm(ptr noundef %0, ptr noundef %1, ptr noundef %2, ptr noundef %3, ptr noundef %4, ptr noundef %5, ptr noundef %6, ptr noundef %7) local_unnamed_addr #0 {
  %9 = tail call ptr @BN_value_one() #3
  %10 = tail call i32 @BN_sub(ptr noundef %5, ptr noundef %1, ptr noundef %9) #3
  %.not = icmp eq i32 %10, 0
  br i1 %.not, label %22, label %11

11:                                               ; preds = %8
  %12 = tail call ptr @BN_value_one() #3
  %13 = tail call i32 @BN_sub(ptr noundef %6, ptr noundef %2, ptr noundef %12) #3
  %.not16 = icmp eq i32 %13, 0
  br i1 %.not16, label %22, label %14

14:                                               ; preds = %11
  %15 = tail call i32 @BN_mul(ptr noundef %7, ptr noundef %5, ptr noundef %6, ptr noundef %0) #3
  %.not17 = icmp eq i32 %15, 0
  br i1 %.not17, label %22, label %16

16:                                               ; preds = %14
  %17 = tail call i32 @BN_gcd(ptr noundef %4, ptr noundef %5, ptr noundef %6, ptr noundef %0) #3
  %.not18 = icmp eq i32 %17, 0
  br i1 %.not18, label %22, label %18

18:                                               ; preds = %16
  %19 = tail call i32 @BN_div(ptr noundef %3, ptr noundef null, ptr noundef %7, ptr noundef %4, ptr noundef %0) #3
  %20 = icmp ne i32 %19, 0
  %21 = zext i1 %20 to i32
  br label %22

22:                                               ; preds = %18, %16, %14, %11, %8
  %23 = phi i32 [ 0, %16 ], [ 0, %14 ], [ 0, %11 ], [ 0, %8 ], [ %21, %18 ]
  ret i32 %23
}